target datalayout = "e-m:e-p270:32:32-p271:32:32-p272:64:64-i64:64-i128:128-f80:128-n8:16:32:64-S128"
target triple = "x86_64-unknown-linux-gnu"

%"class.rocksdb::WriteController" = type { %"struct.std::atomic", %"struct.std::atomic", %"struct.std::atomic", i64, i64, i64, i64, %"class.std::unique_ptr.2" }
%"struct.std::atomic" = type { %"struct.std::__atomic_base" }
%"struct.std::__atomic_base" = type { i32 }
%"class.std::unique_ptr.2" = type { %"struct.std::__uniq_ptr_data.3" }
%"struct.std::__uniq_ptr_data.3" = type { %"class.std::__uniq_ptr_impl.4" }
%"class.std::__uniq_ptr_impl.4" = type { %"class.std::tuple.5" }
%"class.std::tuple.5" = type { %"struct.std::_Tuple_impl.6" }
%"struct.std::_Tuple_impl.6" = type { %"struct.std::_Head_base.9" }
%"struct.std::_Head_base.9" = type { ptr }

; Function Attrs: mustprogress nounwind uwtable
define linkonce_odr noundef nonnull align 8 dereferenceable(8) ptr @_ZSt3maxImERKT_S2_S2_(ptr noundef nonnull align 8 dereferenceable(8) %__a, ptr noundef nonnull align 8 dereferenceable(8) %__b) #1 comdat {
entry:
  %retval = alloca ptr, align 8
  %__a.addr = alloca ptr, align 8
  %__b.addr = alloca ptr, align 8
  store ptr %__a, ptr %__a.addr, align 8
  store ptr %__b, ptr %__b.addr, align 8
  %0 = load ptr, ptr %__a.addr, align 8
  %1 = load i64, ptr %0, align 8
  %2 = load ptr, ptr %__b.addr, align 8
  %3 = load i64, ptr %2, align 8
  %cmp = icmp ult i64 %1, %3
  br i1 %cmp, label %if.then, label %if.end

if.then:                                          ; preds = %entry
  %4 = load ptr, ptr %__b.addr, align 8
  store ptr %4, ptr %retval, align 8
  br label %return

if.end:                                           ; preds = %entry
  %5 = load ptr, ptr %__a.addr, align 8
  store ptr %5, ptr %retval, align 8
  br label %return

return:                                           ; preds = %if.end, %if.then
  %6 = load ptr, ptr %retval, align 8
  ret ptr %6
}

; Function Attrs: mustprogress uwtable
define noundef i64 @_ZN7rocksdb15WriteController18NowMicrosMonotonicEPNS_11SystemClockE(ptr noundef nonnull align 8 dereferenceable(56) %this, ptr noundef %clock) #0 align 2 {
entry:
  %this.addr = alloca ptr, align 8
  %clock.addr = alloca ptr, align 8
  store ptr %this, ptr %this.addr, align 8
  store ptr %clock, ptr %clock.addr, align 8
  %0 = load ptr, ptr %clock.addr, align 8
  %vtable = load ptr, ptr %0, align 8
  %vfn = getelementptr inbounds ptr, ptr %vtable, i64 20
  %1 = load ptr, ptr %vfn, align 8
  %call = call noundef i64 %1(ptr noundef nonnull align 8 dereferenceable(32) %0)
  %div = udiv i64 %call, 1000
  ret i64 %div
}

; Function Attrs: noreturn nounwind uwtable
define linkonce_odr hidden void @__clang_call_terminate(ptr noundef %0) #5 comdat {
  %2 = call ptr @__cxa_begin_catch(ptr %0) #6
  call void @_ZSt9terminatev() #9
  unreachable
}

; Function Attrs: mustprogress nounwind uwtable
define linkonce_odr noundef i32 @_ZStanSt12memory_orderSt23__memory_order_modifier(i32 noundef %__m, i32 noundef %__mod) #1 comdat {
entry:
  %__m.addr = alloca i32, align 4
  %__mod.addr = alloca i32, align 4
  store i32 %__m, ptr %__m.addr, align 4
  store i32 %__mod, ptr %__mod.addr, align 4
  %0 = load i32, ptr %__m.addr, align 4
  %1 = load i32, ptr %__mod.addr, align 4
  %and = and i32 %0, %1
  ret i32 %and
}

; Function Attrs: mustprogress uwtable
define noundef i64 @_ZN7rocksdb15WriteController8GetDelayEPNS_11SystemClockEm(ptr noundef nonnull align 8 dereferenceable(56) %this, ptr noundef %clock, i64 noundef %num_bytes) #0 align 2 personality ptr @__gxx_personality_v0 {
entry:
  %this.addr.i49 = alloca ptr, align 8
  %__m.addr.i50 = alloca i32, align 4
  %__b.i51 = alloca i32, align 4
  %atomic-temp.i52 = alloca i32, align 4
  %this.addr.i = alloca ptr, align 8
  %__m.addr.i = alloca i32, align 4
  %__b.i = alloca i32, align 4
  %atomic-temp.i = alloca i32, align 4
  %retval = alloca i64, align 8
  %this.addr = alloca ptr, align 8
  %clock.addr = alloca ptr, align 8
  %num_bytes.addr = alloca i64, align 8
  %time_now = alloca i64, align 8
  %kMicrosPerSecond = alloca i64, align 8
  %kMicrosPerRefill = alloca i64, align 8
  %elapsed = alloca i64, align 8
  %bytes_over_budget = alloca i64, align 8
  %needed_delay = alloca i64, align 8
  %ref.tmp = alloca i64, align 8
  store ptr %this, ptr %this.addr, align 8
  store ptr %clock, ptr %clock.addr, align 8
  store i64 %num_bytes, ptr %num_bytes.addr, align 8
  %this1 = load ptr, ptr %this.addr, align 8
  %total_stopped_ = getelementptr inbounds %"class.rocksdb::WriteController", ptr %this1, i32 0, i32 0
  store ptr %total_stopped_, ptr %this.addr.i49, align 8
  store i32 0, ptr %__m.addr.i50, align 4
  %this1.i53 = load ptr, ptr %this.addr.i49, align 8
  %0 = load i32, ptr %__m.addr.i50, align 4
  %call.i54 = invoke noundef i32 @_ZStanSt12memory_orderSt23__memory_order_modifier(i32 noundef %0, i32 noundef 65535)
          to label %invoke.cont.i56 unwind label %terminate.lpad.i55

invoke.cont.i56:                                  ; preds = %entry
  store i32 %call.i54, ptr %__b.i51, align 4
  %1 = load i32, ptr %__m.addr.i50, align 4
  switch i32 %1, label %monotonic.i59 [
    i32 1, label %acquire.i58
    i32 2, label %acquire.i58
    i32 5, label %seqcst.i57
  ]

monotonic.i59:                                    ; preds = %invoke.cont.i56
  %2 = load atomic i32, ptr %this1.i53 monotonic, align 4
  store i32 %2, ptr %atomic-temp.i52, align 4
  br label %_ZNKSt13__atomic_baseIiE4loadESt12memory_order.exit60

acquire.i58:                                      ; preds = %invoke.cont.i56, %invoke.cont.i56
  %3 = load atomic i32, ptr %this1.i53 acquire, align 4
  store i32 %3, ptr %atomic-temp.i52, align 4
  br label %_ZNKSt13__atomic_baseIiE4loadESt12memory_order.exit60

seqcst.i57:                                       ; preds = %invoke.cont.i56
  %4 = load atomic i32, ptr %this1.i53 seq_cst, align 4
  store i32 %4, ptr %atomic-temp.i52, align 4
  br label %_ZNKSt13__atomic_baseIiE4loadESt12memory_order.exit60

terminate.lpad.i55:                               ; preds = %entry
  %5 = landingpad { ptr, i32 }
          catch ptr null
  %6 = extractvalue { ptr, i32 } %5, 0
  call void @__clang_call_terminate(ptr %6) #9
  unreachable

_ZNKSt13__atomic_baseIiE4loadESt12memory_order.exit60: ; preds = %seqcst.i57, %acquire.i58, %monotonic.i59
  %7 = load i32, ptr %atomic-temp.i52, align 4
  %cmp = icmp sgt i32 %7, 0
  br i1 %cmp, label %if.then, label %if.end

if.then:                                          ; preds = %_ZNKSt13__atomic_baseIiE4loadESt12memory_order.exit60
  store i64 0, ptr %retval, align 8
  br label %return

if.end:                                           ; preds = %_ZNKSt13__atomic_baseIiE4loadESt12memory_order.exit60
  %total_delayed_ = getelementptr inbounds %"class.rocksdb::WriteController", ptr %this1, i32 0, i32 1
  store ptr %total_delayed_, ptr %this.addr.i, align 8
  store i32 0, ptr %__m.addr.i, align 4
  %this1.i = load ptr, ptr %this.addr.i, align 8
  %8 = load i32, ptr %__m.addr.i, align 4
  %call.i = invoke noundef i32 @_ZStanSt12memory_orderSt23__memory_order_modifier(i32 noundef %8, i32 noundef 65535)
          to label %invoke.cont.i unwind label %terminate.lpad.i

invoke.cont.i:                                    ; preds = %if.end
  store i32 %call.i, ptr %__b.i, align 4
  %9 = load i32, ptr %__m.addr.i, align 4
  switch i32 %9, label %monotonic.i [
    i32 1, label %acquire.i
    i32 2, label %acquire.i
    i32 5, label %seqcst.i
  ]

monotonic.i:                                      ; preds = %invoke.cont.i
  %10 = load atomic i32, ptr %this1.i monotonic, align 4
  store i32 %10, ptr %atomic-temp.i, align 4
  br label %_ZNKSt13__atomic_baseIiE4loadESt12memory_order.exit

acquire.i:                                        ; preds = %invoke.cont.i, %invoke.cont.i
  %11 = load atomic i32, ptr %this1.i acquire, align 4
  store i32 %11, ptr %atomic-temp.i, align 4
  br label %_ZNKSt13__atomic_baseIiE4loadESt12memory_order.exit

seqcst.i:                                         ; preds = %invoke.cont.i
  %12 = load atomic i32, ptr %this1.i seq_cst, align 4
  store i32 %12, ptr %atomic-temp.i, align 4
  br label %_ZNKSt13__atomic_baseIiE4loadESt12memory_order.exit

terminate.lpad.i:                                 ; preds = %if.end
  %13 = landingpad { ptr, i32 }
          catch ptr null
  %14 = extractvalue { ptr, i32 } %13, 0
  call void @__clang_call_terminate(ptr %14) #9
  unreachable

_ZNKSt13__atomic_baseIiE4loadESt12memory_order.exit: ; preds = %seqcst.i, %acquire.i, %monotonic.i
  %15 = load i32, ptr %atomic-temp.i, align 4
  %cmp3 = icmp eq i32 %15, 0
  br i1 %cmp3, label %if.then4, label %if.end5

if.then4:                                         ; preds = %_ZNKSt13__atomic_baseIiE4loadESt12memory_order.exit
  store i64 0, ptr %retval, align 8
  br label %return

if.end5:                                          ; preds = %_ZNKSt13__atomic_baseIiE4loadESt12memory_order.exit
  %credit_in_bytes_ = getelementptr inbounds %"class.rocksdb::WriteController", ptr %this1, i32 0, i32 3
  %16 = load i64, ptr %credit_in_bytes_, align 8
  %17 = load i64, ptr %num_bytes.addr, align 8
  %cmp6 = icmp uge i64 %16, %17
  br i1 %cmp6, label %if.then7, label %if.end9

if.then7:                                         ; preds = %if.end5
  %18 = load i64, ptr %num_bytes.addr, align 8
  %credit_in_bytes_8 = getelementptr inbounds %"class.rocksdb::WriteController", ptr %this1, i32 0, i32 3
  %19 = load i64, ptr %credit_in_bytes_8, align 8
  %sub = sub i64 %19, %18
  store i64 %sub, ptr %credit_in_bytes_8, align 8
  store i64 0, ptr %retval, align 8
  br label %return

if.end9:                                          ; preds = %if.end5
  %20 = load ptr, ptr %clock.addr, align 8
  %call10 = call noundef i64 @_ZN7rocksdb15WriteController18NowMicrosMonotonicEPNS_11SystemClockE(ptr noundef nonnull align 8 dereferenceable(56) %this1, ptr noundef %20)
  store i64 %call10, ptr %time_now, align 8
  store i64 1000000, ptr %kMicrosPerSecond, align 8
  store i64 1000, ptr %kMicrosPerRefill, align 8
  %next_refill_time_ = getelementptr inbounds %"class.rocksdb::WriteController", ptr %this1, i32 0, i32 4
  %21 = load i64, ptr %next_refill_time_, align 8
  %cmp11 = icmp eq i64 %21, 0
  br i1 %cmp11, label %if.then12, label %if.end14

if.then12:                                        ; preds = %if.end9
  %22 = load i64, ptr %time_now, align 8
  %next_refill_time_13 = getelementptr inbounds %"class.rocksdb::WriteController", ptr %this1, i32 0, i32 4
  store i64 %22, ptr %next_refill_time_13, align 8
  br label %if.end14

if.end14:                                         ; preds = %if.then12, %if.end9
  %next_refill_time_15 = getelementptr inbounds %"class.rocksdb::WriteController", ptr %this1, i32 0, i32 4
  %23 = load i64, ptr %next_refill_time_15, align 8
  %24 = load i64, ptr %time_now, align 8
  %cmp16 = icmp ule i64 %23, %24
  br i1 %cmp16, label %if.then17, label %if.end33

if.then17:                                        ; preds = %if.end14
  %25 = load i64, ptr %time_now, align 8
  %next_refill_time_18 = getelementptr inbounds %"class.rocksdb::WriteController", ptr %this1, i32 0, i32 4
  %26 = load i64, ptr %next_refill_time_18, align 8
  %sub19 = sub i64 %25, %26
  %add = add i64 %sub19, 1000
  store i64 %add, ptr %elapsed, align 8
  %27 = load i64, ptr %elapsed, align 8
  %conv = uitofp i64 %27 to double
  %mul = fmul double 1.000000e+00, %conv
  %div = fdiv double %mul, 1.000000e+06
  %delayed_write_rate_ = getelementptr inbounds %"class.rocksdb::WriteController", ptr %this1, i32 0, i32 6
  %28 = load i64, ptr %delayed_write_rate_, align 8
  %conv20 = uitofp i64 %28 to double
  %29 = call double @llvm.fmuladd.f64(double %div, double %conv20, double 0x3FEFFFFDE7210BE9)
  %conv22 = fptoui double %29 to i64
  %credit_in_bytes_23 = getelementptr inbounds %"class.rocksdb::WriteController", ptr %this1, i32 0, i32 3
  %30 = load i64, ptr %credit_in_bytes_23, align 8
  %add24 = add i64 %30, %conv22
  store i64 %add24, ptr %credit_in_bytes_23, align 8
  %31 = load i64, ptr %time_now, align 8
  %add25 = add i64 %31, 1000
  %next_refill_time_26 = getelementptr inbounds %"class.rocksdb::WriteController", ptr %this1, i32 0, i32 4
  store i64 %add25, ptr %next_refill_time_26, align 8
  %credit_in_bytes_27 = getelementptr inbounds %"class.rocksdb::WriteController", ptr %this1, i32 0, i32 3
  %32 = load i64, ptr %credit_in_bytes_27, align 8
  %33 = load i64, ptr %num_bytes.addr, align 8
  %cmp28 = icmp uge i64 %32, %33
  br i1 %cmp28, label %if.then29, label %if.end32

if.then29:                                        ; preds = %if.then17
  %34 = load i64, ptr %num_bytes.addr, align 8
  %credit_in_bytes_30 = getelementptr inbounds %"class.rocksdb::WriteController", ptr %this1, i32 0, i32 3
  %35 = load i64, ptr %credit_in_bytes_30, align 8
  %sub31 = sub i64 %35, %34
  store i64 %sub31, ptr %credit_in_bytes_30, align 8
  store i64 0, ptr %retval, align 8
  br label %return

if.end32:                                         ; preds = %if.then17
  br label %if.end33

if.end33:                                         ; preds = %if.end32, %if.end14
  %36 = load i64, ptr %num_bytes.addr, align 8
  %credit_in_bytes_34 = getelementptr inbounds %"class.rocksdb::WriteController", ptr %this1, i32 0, i32 3
  %37 = load i64, ptr %credit_in_bytes_34, align 8
  %sub35 = sub i64 %36, %37
  store i64 %sub35, ptr %bytes_over_budget, align 8
  %38 = load i64, ptr %bytes_over_budget, align 8
  %conv36 = uitofp i64 %38 to double
  %mul37 = fmul double 1.000000e+00, %conv36
  %delayed_write_rate_38 = getelementptr inbounds %"class.rocksdb::WriteController", ptr %this1, i32 0, i32 6
  %39 = load i64, ptr %delayed_write_rate_38, align 8
  %conv39 = uitofp i64 %39 to double
  %div40 = fdiv double %mul37, %conv39
  %mul41 = fmul double %div40, 1.000000e+06
  %conv42 = fptoui double %mul41 to i64
  store i64 %conv42, ptr %needed_delay, align 8
  %credit_in_bytes_43 = getelementptr inbounds %"class.rocksdb::WriteController", ptr %this1, i32 0, i32 3
  store i64 0, ptr %credit_in_bytes_43, align 8
  %40 = load i64, ptr %needed_delay, align 8
  %next_refill_time_44 = getelementptr inbounds %"class.rocksdb::WriteController", ptr %this1, i32 0, i32 4
  %41 = load i64, ptr %next_refill_time_44, align 8
  %add45 = add i64 %41, %40
  store i64 %add45, ptr %next_refill_time_44, align 8
  %next_refill_time_46 = getelementptr inbounds %"class.rocksdb::WriteController", ptr %this1, i32 0, i32 4
  %42 = load i64, ptr %next_refill_time_46, align 8
  %43 = load i64, ptr %time_now, align 8
  %sub47 = sub i64 %42, %43
  store i64 %sub47, ptr %ref.tmp, align 8
  %call48 = call noundef nonnull align 8 dereferenceable(8) ptr @_ZSt3maxImERKT_S2_S2_(ptr noundef nonnull align 8 dereferenceable(8) %ref.tmp, ptr noundef nonnull align 8 dereferenceable(8) %kMicrosPerRefill)
  %44 = load i64, ptr %call48, align 8
  store i64 %44, ptr %retval, align 8
  br label %return

return:                                           ; preds = %if.end33, %if.then29, %if.then7, %if.then4, %if.then
  %45 = load i64, ptr %retval, align 8
  ret i64 %45
}