; Function Attrs: mustprogress uwtable
define noundef i64 @_ZN7rocksdb15WriteController8GetDelayEPNS_11SystemClockEm(ptr nocapture noundef nonnull align 8 dereferenceable(56) %this, ptr noundef %clock, i64 noundef %num_bytes) local_unnamed_addr #0 align 2 personality ptr @__gxx_personality_v0 {
entry:
  %0 = load atomic i32, ptr %this monotonic, align 8
  %cmp = icmp sgt i32 %0, 0
  br i1 %cmp, label %return, label %if.end

if.end:                                           ; preds = %entry
  %total_delayed_ = getelementptr inbounds i8, ptr %this, i64 4
  %1 = load atomic i32, ptr %total_delayed_ monotonic, align 4
  %cmp3 = icmp eq i32 %1, 0
  br i1 %cmp3, label %return, label %if.end5

if.end5:                                          ; preds = %if.end
  %credit_in_bytes_ = getelementptr inbounds i8, ptr %this, i64 16
  %2 = load i64, ptr %credit_in_bytes_, align 8
  %cmp6.not = icmp ult i64 %2, %num_bytes
  br i1 %cmp6.not, label %if.end9, label %if.then7

if.then7:                                         ; preds = %if.end5
  %sub = sub i64 %2, %num_bytes
  store i64 %sub, ptr %credit_in_bytes_, align 8
  br label %return

if.end9:                                          ; preds = %if.end5
  %vtable.i = load ptr, ptr %clock, align 8
  %vfn.i = getelementptr inbounds i8, ptr %vtable.i, i64 160
  %3 = load ptr, ptr %vfn.i, align 8
  %call.i = tail call noundef i64 %3(ptr noundef nonnull align 8 dereferenceable(32) %clock)
  %div.i = udiv i64 %call.i, 1000
  %next_refill_time_ = getelementptr inbounds i8, ptr %this, i64 24
  %4 = load i64, ptr %next_refill_time_, align 8
  %cmp11 = icmp eq i64 %4, 0
  br i1 %cmp11, label %if.end14.thread, label %if.end14

if.end14.thread:                                  ; preds = %if.end9
  %.pre18 = load i64, ptr %credit_in_bytes_, align 8
  br label %if.then17

if.end14:                                         ; preds = %if.end9
  %cmp16.not = icmp ugt i64 %4, %div.i
  %.pre = load i64, ptr %credit_in_bytes_, align 8
  br i1 %cmp16.not, label %if.end14.if.end33_crit_edge, label %if.then17

if.end14.if.end33_crit_edge:                      ; preds = %if.end14
  %delayed_write_rate_38.phi.trans.insert = getelementptr inbounds i8, ptr %this, i64 40
  %.pre15 = load i64, ptr %delayed_write_rate_38.phi.trans.insert, align 8
  %.pre16 = uitofp i64 %.pre15 to double
  br label %if.end33

if.then17:                                        ; preds = %if.end14.thread, %if.end14
  %.pre19 = phi i64 [ %.pre18, %if.end14.thread ], [ %.pre, %if.end14 ]
  %5 = phi i64 [ %div.i, %if.end14.thread ], [ %4, %if.end14 ]
  %sub19 = add nuw nsw i64 %div.i, 1000
  %add = sub nsw i64 %sub19, %5
  %conv = uitofp i64 %add to double
  %div = fdiv double %conv, 1.000000e+06
  %delayed_write_rate_ = getelementptr inbounds i8, ptr %this, i64 40
  %6 = load i64, ptr %delayed_write_rate_, align 8
  %conv20 = uitofp i64 %6 to double
  %7 = tail call double @llvm.fmuladd.f64(double %div, double %conv20, double 0x3FEFFFFDE7210BE9)
  %conv22 = fptoui double %7 to i64
  %add24 = add i64 %.pre19, %conv22
  store i64 %sub19, ptr %next_refill_time_, align 8
  %cmp28.not = icmp ult i64 %add24, %num_bytes
  br i1 %cmp28.not, label %if.end33, label %if.then29

if.then29:                                        ; preds = %if.then17
  %sub31 = sub i64 %add24, %num_bytes
  store i64 %sub31, ptr %credit_in_bytes_, align 8
  br label %return

if.end33:                                         ; preds = %if.end14.if.end33_crit_edge, %if.then17
  %conv39.pre-phi = phi double [ %.pre16, %if.end14.if.end33_crit_edge ], [ %conv20, %if.then17 ]
  %8 = phi i64 [ %4, %if.end14.if.end33_crit_edge ], [ %sub19, %if.then17 ]
  %9 = phi i64 [ %.pre, %if.end14.if.end33_crit_edge ], [ %add24, %if.then17 ]
  %sub35 = sub i64 %num_bytes, %9
  %conv36 = uitofp i64 %sub35 to double
  %div40 = fdiv double %conv36, %conv39.pre-phi
  %mul41 = fmul double %div40, 1.000000e+06
  %conv42 = fptoui double %mul41 to i64
  store i64 0, ptr %credit_in_bytes_, align 8
  %add45 = add i64 %8, %conv42
  store i64 %add45, ptr %next_refill_time_, align 8
  %sub47 = sub i64 %add45, %div.i
  %.sroa.speculated = tail call i64 @llvm.umax.i64(i64 %sub47, i64 1000)
  br label %return

return:                                           ; preds = %if.end, %entry, %if.end33, %if.then29, %if.then7
  %retval.0 = phi i64 [ 0, %if.then7 ], [ 0, %if.then29 ], [ %.sroa.speculated, %if.end33 ], [ 0, %entry ], [ 0, %if.end ]
  ret i64 %retval.0
}